; Function Attrs: mustprogress nounwind uwtable
define dso_local void @_ZN6btDbvtD2Ev(ptr noundef nonnull align 8 dereferenceable(64) %this) unnamed_addr #1 align 2 personality ptr @__gxx_personality_v0 {
entry:
  %0 = load ptr, ptr %this, align 8
  %tobool.not.i = icmp eq ptr %0, null
  br i1 %tobool.not.i, label %if.end.i, label %if.then.i

if.then.i:                                        ; preds = %entry
  invoke fastcc void @_ZL17recursedeletenodeP6btDbvtP10btDbvtNode(ptr noundef nonnull %this, ptr noundef nonnull %0)
          to label %if.end.i unwind label %terminate.lpad

if.end.i:                                         ; preds = %if.then.i, %entry
  %m_free.i = getelementptr inbounds i8, ptr %this, i64 8
  %1 = load ptr, ptr %m_free.i, align 8
  invoke void @_Z21btAlignedFreeInternalPv(ptr noundef %1)
          to label %.noexc1 unwind label %terminate.lpad

.noexc1:                                          ; preds = %if.end.i
  store ptr null, ptr %m_free.i, align 8
  %m_lkhd.i = getelementptr inbounds i8, ptr %this, i64 16
  store i32 -1, ptr %m_lkhd.i, align 8
  %m_data.i.i.i = getelementptr inbounds i8, ptr %this, i64 48
  %2 = load ptr, ptr %m_data.i.i.i, align 8
  %tobool.not.i.i.i = icmp eq ptr %2, null
  br i1 %tobool.not.i.i.i, label %_ZN20btAlignedObjectArrayIN6btDbvt6sStkNNEED2Ev.exit, label %if.then.i.i.i

if.then.i.i.i:                                    ; preds = %.noexc1
  %m_ownsMemory.i.i.i = getelementptr inbounds i8, ptr %this, i64 56
  %3 = load i8, ptr %m_ownsMemory.i.i.i, align 8
  %4 = and i8 %3, 1
  %tobool2.not.i.i.i = icmp eq i8 %4, 0
  br i1 %tobool2.not.i.i.i, label %_ZN20btAlignedObjectArrayIN6btDbvt6sStkNNEED2Ev.exit, label %if.then3.i.i.i

if.then3.i.i.i:                                   ; preds = %if.then.i.i.i
  invoke void @_Z21btAlignedFreeInternalPv(ptr noundef nonnull %2)
          to label %_ZN20btAlignedObjectArrayIN6btDbvt6sStkNNEED2Ev.exit unwind label %terminate.lpad

_ZN20btAlignedObjectArrayIN6btDbvt6sStkNNEED2Ev.exit: ; preds = %if.then3.i.i.i, %.noexc1, %if.then.i.i.i
  %m_size.i.i.i = getelementptr inbounds i8, ptr %this, i64 36
  %m_ownsMemory.i1.i.i = getelementptr inbounds i8, ptr %this, i64 56
  %m_capacity.i.i.i = getelementptr inbounds i8, ptr %this, i64 40
  %m_opath.i = getelementptr inbounds i8, ptr %this, i64 24
  store i32 0, ptr %m_opath.i, align 8
  store i8 1, ptr %m_ownsMemory.i1.i.i, align 8
  store ptr null, ptr %m_data.i.i.i, align 8
  store i32 0, ptr %m_size.i.i.i, align 4
  store i32 0, ptr %m_capacity.i.i.i, align 8
  ret void

terminate.lpad:                                   ; preds = %if.then3.i.i.i, %if.end.i, %if.then.i
  %5 = landingpad { ptr, i32 }
          catch ptr null
  %6 = extractvalue { ptr, i32 } %5, 0
  tail call void @__clang_call_terminate(ptr %6) #16
  unreachable
}